; Function Attrs: inlinehint mustprogress nounwind willreturn uwtable
define internal fastcc range(i32 -32, 1) i32 @pmix_bfrops_base_tma_copy_coord(ptr noundef writeonly captures(none) %0, ptr noundef readonly captures(none) %1) unnamed_addr #16 {
  %3 = tail call noalias noundef dereferenceable_or_null(24) ptr @malloc(i64 noundef 24) #25
  %4 = icmp eq ptr %3, null
  br i1 %4, label %19, label %5, !prof !116

5:                                                ; preds = %2
  %6 = getelementptr inbounds nuw i8, ptr %3, i64 8
  store i64 0, ptr %6, align 8
  %7 = load i8, ptr %1, align 8, !tbaa !71
  store i8 %7, ptr %3, align 8, !tbaa !71
  %8 = getelementptr inbounds nuw i8, ptr %1, i64 16
  %9 = load i64, ptr %8, align 8, !tbaa !158
  %10 = getelementptr inbounds nuw i8, ptr %3, i64 16
  store i64 %9, ptr %10, align 8, !tbaa !158
  %.not.i = icmp eq i64 %9, 0
  br i1 %.not.i, label %18, label %11

11:                                               ; preds = %5
  %12 = shl i64 %9, 2
  %13 = tail call noalias noundef ptr @malloc(i64 noundef %12) #25
  store ptr %13, ptr %6, align 8, !tbaa !74
  %14 = icmp eq ptr %13, null
  br i1 %14, label %pmix_bfrops_base_tma_coord_destruct.exit, label %15, !prof !116

15:                                               ; preds = %11
  %16 = getelementptr inbounds nuw i8, ptr %1, i64 8
  %17 = load ptr, ptr %16, align 8, !tbaa !74
  tail call void @llvm.memcpy.p0.p0.i64(ptr nonnull align 4 %13, ptr align 4 %17, i64 %12, i1 false)
  br label %18

pmix_bfrops_base_tma_coord_destruct.exit:         ; preds = %11
  tail call void @free(ptr noundef nonnull %3) #24
  br label %19

18:                                               ; preds = %15, %5
  store ptr %3, ptr %0, align 8, !tbaa !283
  br label %19

19:                                               ; preds = %pmix_bfrops_base_tma_coord_destruct.exit, %18, %2
  %.0 = phi i32 [ -32, %2 ], [ 0, %18 ], [ -32, %pmix_bfrops_base_tma_coord_destruct.exit ]
  ret i32 %.0
}